; Function Attrs: mustprogress uwtable
define void @_ZN4base19PersistentSampleMapC2EmPNS_28PersistentHistogramAllocatorEPNS_16HistogramSamples8MetadataE(ptr noundef nonnull align 8 dereferenceable(104) %0, i64 noundef %1, ptr noundef %2, ptr noundef %3) unnamed_addr #0 align 2 personality ptr @__gxx_personality_v0 {
  tail call void @_ZN4base16HistogramSamplesC2EmPNS0_8MetadataE(ptr noundef nonnull align 8 dereferenceable(40) %0, i64 noundef %1, ptr noundef %3)
  store ptr getelementptr inbounds nuw inrange(-16, 88) (i8, ptr @_ZTVN4base19PersistentSampleMapE, i64 16), ptr %0, align 8, !tbaa !3
  %5 = getelementptr inbounds nuw i8, ptr %0, i64 48
  store i32 0, ptr %5, align 8, !tbaa !6
  %6 = getelementptr inbounds nuw i8, ptr %0, i64 56
  store ptr null, ptr %6, align 8, !tbaa !14
  %7 = getelementptr inbounds nuw i8, ptr %0, i64 64
  store ptr %5, ptr %7, align 8, !tbaa !15
  %8 = getelementptr inbounds nuw i8, ptr %0, i64 72
  store ptr %5, ptr %8, align 8, !tbaa !16
  %9 = getelementptr inbounds nuw i8, ptr %0, i64 80
  store i64 0, ptr %9, align 8, !tbaa !17
  %10 = getelementptr inbounds nuw i8, ptr %0, i64 88
  store ptr %2, ptr %10, align 8, !tbaa !18
  %11 = getelementptr inbounds nuw i8, ptr %0, i64 96
  store ptr null, ptr %11, align 8, !tbaa !31
  ret void
}